TN:
TN:
SF:/home/pimenta/docs/code/git/2019-1-grupo6/src/menu/Menu.cpp
FN:3,_ZN4Menu9cabecalhoEv
FN:12,_ZN4Menu10textoLoginEv
FN:21,_ZN4Menu9textoMenuEv
FN:31,_ZN4Menu10textoBuscaEv
FN:39,_ZN4Menu16textoTeclaErradaEv
FN:45,_ZN4Menu11systemPauseEv
FNDA:1,_ZN4Menu9cabecalhoEv
FNDA:1,_ZN4Menu10textoLoginEv
FNDA:1,_ZN4Menu9textoMenuEv
FNDA:1,_ZN4Menu10textoBuscaEv
FNDA:1,_ZN4Menu16textoTeclaErradaEv
FNDA:1,_ZN4Menu11systemPauseEv
FNF:6
FNH:6
DA:3,1
DA:5,1
DA:6,1
DA:7,1
DA:8,1
DA:9,1
DA:12,1
DA:14,1
DA:15,1
DA:16,1
DA:17,1
DA:18,1
DA:21,1
DA:23,1
DA:24,1
DA:25,1
DA:26,1
DA:27,1
DA:28,1
DA:31,1
DA:33,1
DA:34,1
DA:35,1
DA:36,1
DA:39,1
DA:41,1
DA:42,1
DA:45,1
DA:47,1
DA:48,1
DA:49,1
DA:50,1
DA:51,2
LF:33
LH:33
end_of_record
TN:
SF:/home/pimenta/docs/code/git/2019-1-grupo6/src/cadastro/Cadastro.cpp
FN:3,_ZN8Cadastro7setNomeEv
FN:11,_ZN8Cadastro6setCpfEv
FN:19,_ZN8Cadastro11setEnderecoEv
FN:27,_ZN8Cadastro10setContatoEv
FN:36,_ZN8Cadastro15cadastrarPessoaEv
FNDA:0,_ZN8Cadastro7setNomeEv
FNDA:0,_ZN8Cadastro6setCpfEv
FNDA:0,_ZN8Cadastro11setEnderecoEv
FNDA:0,_ZN8Cadastro10setContatoEv
FNDA:0,_ZN8Cadastro15cadastrarPessoaEv
FNF:5
FNH:0
DA:3,0
DA:5,0
DA:6,0
DA:7,0
DA:8,0
DA:11,0
DA:13,0
DA:14,0
DA:15,0
DA:16,0
DA:19,0
DA:21,0
DA:22,0
DA:23,0
DA:24,0
DA:27,0
DA:29,0
DA:30,0
DA:31,0
DA:32,0
DA:36,0
DA:38,0
DA:39,0
DA:40,0
DA:41,0
DA:43,0
DA:44,0
DA:46,0
DA:47,0
DA:49,0
DA:50,0
DA:52,0
DA:53,0
DA:55,0
DA:56,0
DA:57,0
DA:59,0
DA:61,0
DA:64,0
DA:65,0
DA:66,0
DA:67,0
DA:68,0
DA:69,0
DA:71,0
DA:72,0
DA:73,0
LF:47
LH:0
end_of_record
TN:
SF:/home/pimenta/docs/code/git/2019-1-grupo6/src/excecoes/ExcecaoArquivos.cpp
FN:3,_ZNK24ExcecaoAberturaDeArquivo4whatEv
FN:8,_ZNK26ExcecaoFechamentoDeArquivo4whatEv
FN:13,_ZNK23ExcecaoEntradaDeArquivo4whatEv
FNDA:2,_ZNK24ExcecaoAberturaDeArquivo4whatEv
FNDA:0,_ZNK26ExcecaoFechamentoDeArquivo4whatEv
FNDA:2,_ZNK23ExcecaoEntradaDeArquivo4whatEv
FNF:3
FNH:2
DA:3,2
DA:5,2
DA:8,0
DA:10,0
DA:13,2
DA:15,2
LF:6
LH:4
end_of_record
TN:
SF:/home/pimenta/docs/code/git/2019-1-grupo6/src/gestao/Usuario.cpp
FN:3,_ZN7UsuarioC2ENSt7__cxx1112basic_stringIcSt11char_traitsIcESaIcEEE
FN:5,_ZN7Usuario29verificarSeHaLivrosEmprestadoEv
FN:40,_ZN7Usuario24verificarLivroEspecificoENSt7__cxx1112basic_stringIcSt11char_traitsIcESaIcEEE
FN:62,_ZN7Usuario20pegarLivroEmprestadoENSt7__cxx1112basic_stringIcSt11char_traitsIcESaIcEEE
FN:107,_ZN7Usuario13devolverLivroENSt7__cxx1112basic_stringIcSt11char_traitsIcESaIcEEE
FN:140,_ZN7Usuario22printLivrosEmprestadosEv
FN:181,_ZN7Usuario9getLivrosB5cxx11Ev
FNDA:8,_ZN7UsuarioC2ENSt7__cxx1112basic_stringIcSt11char_traitsIcESaIcEEE
FNDA:6,_ZN7Usuario29verificarSeHaLivrosEmprestadoEv
FNDA:4,_ZN7Usuario24verificarLivroEspecificoENSt7__cxx1112basic_stringIcSt11char_traitsIcESaIcEEE
FNDA:3,_ZN7Usuario20pegarLivroEmprestadoENSt7__cxx1112basic_stringIcSt11char_traitsIcESaIcEEE
FNDA:3,_ZN7Usuario13devolverLivroENSt7__cxx1112basic_stringIcSt11char_traitsIcESaIcEEE
FNDA:2,_ZN7Usuario22printLivrosEmprestadosEv
FNDA:1,_ZN7Usuario9getLivrosB5cxx11Ev
FNF:7
FNH:7
DA:3,8
DA:5,6
DA:7,12
DA:8,12
DA:9,12
DA:10,12
DA:12,6
DA:13,6
DA:15,6
DA:17,1
DA:21,19
DA:23,18
DA:25,4
DA:26,4
DA:28,2
DA:32,2
DA:36,1
DA:40,4
DA:42,8
DA:43,8
DA:44,8
DA:45,8
DA:47,4
DA:48,4
DA:51,22
DA:53,21
DA:55,3
DA:58,1
DA:59,1
DA:62,3
DA:64,6
DA:65,6
DA:66,6
DA:67,6
DA:68,6
DA:70,4
DA:71,3
DA:73,3
DA:74,3
DA:76,17
DA:79,15
DA:81,1
DA:82,1
DA:83,1
DA:84,1
DA:87,14
DA:89,2
DA:90,2
DA:95,12
DA:98,2
DA:99,2
DA:100,2
DA:101,2
DA:102,4
DA:107,3
DA:109,3
DA:111,1
DA:113,4
DA:114,4
DA:115,4
DA:116,4
DA:119,2
DA:120,2
DA:122,2
DA:123,2
DA:125,14
DA:127,12
DA:129,10
DA:133,2
DA:134,2
DA:135,2
DA:136,2
DA:137,4
DA:140,2
DA:142,2
DA:144,1
DA:146,2
DA:147,2
DA:148,2
DA:149,2
DA:150,2
DA:152,1
DA:153,1
DA:155,1
DA:156,1
DA:158,6
DA:160,6
DA:162,1
DA:163,1
DA:164,1
DA:166,5
DA:168,1
DA:169,1
DA:170,1
DA:172,4
DA:174,1
DA:177,0
DA:178,0
DA:181,1
DA:183,1
LF:100
LH:98
end_of_record
TN:
SF:/home/pimenta/docs/code/git/2019-1-grupo6/src/busca/Busca.cpp
FN:4,_ZN5Busca13incluirLivrosEv
FN:35,_ZN5Busca11buscarLivroENSt7__cxx1112basic_stringIcSt11char_traitsIcESaIcEEE
FN:54,_ZN5Busca10printBuscaEv
FN:73,_ZN5Busca14getLivrosBuscaB5cxx11Ev
FNDA:2,_ZN5Busca13incluirLivrosEv
FNDA:2,_ZN5Busca11buscarLivroENSt7__cxx1112basic_stringIcSt11char_traitsIcESaIcEEE
FNDA:0,_ZN5Busca10printBuscaEv
FNDA:1,_ZN5Busca14getLivrosBuscaB5cxx11Ev
FNF:4
FNH:3
DA:4,2
DA:6,4
DA:7,2
DA:8,2
DA:10,0
DA:14,10
DA:16,8
DA:17,8
DA:18,8
DA:20,0
DA:23,8
DA:26,2
DA:27,2
DA:29,0
DA:32,2
DA:35,2
DA:37,2
DA:39,1
DA:42,1
DA:44,9
DA:46,8
DA:47,8
DA:49,2
DA:52,1
DA:54,0
DA:56,0
DA:58,0
DA:60,0
DA:62,0
DA:66,0
DA:68,0
DA:71,0
DA:73,1
DA:75,1
LF:34
LH:23
end_of_record
TN:
SF:/home/pimenta/docs/code/git/2019-1-grupo6/src/excecoes/ExcecaoLogin.cpp
FN:3,_ZNK13ExcecaoAcesso4whatEv
FN:8,_ZNK27ExcecaoUsuarioNaoCadastrado4whatEv
FNDA:0,_ZNK13ExcecaoAcesso4whatEv
FNDA:0,_ZNK27ExcecaoUsuarioNaoCadastrado4whatEv
FNF:2
FNH:0
DA:3,0
DA:5,0
DA:8,0
DA:10,0
LF:4
LH:0
end_of_record
TN:
SF:/home/pimenta/docs/code/git/2019-1-grupo6/src/gestao/Pessoa.cpp
FN:3,_ZN6PessoaC2ENSt7__cxx1112basic_stringIcSt11char_traitsIcESaIcEEE
FN:5,_ZN6Pessoa11buscarDadosEv
FN:45,_ZN6PessoaD2Ev
FN:45,_ZN6PessoaD0Ev
FN:48,_ZN6Pessoa7getNomeB5cxx11Ev
FN:53,_ZN6Pessoa6getCpfB5cxx11Ev
FN:58,_ZN6Pessoa11getEnderecoB5cxx11Ev
FN:63,_ZN6Pessoa10getContatoB5cxx11Ev
FNDA:8,_ZN6PessoaC2ENSt7__cxx1112basic_stringIcSt11char_traitsIcESaIcEEE
FNDA:3,_ZN6Pessoa11buscarDadosEv
FNDA:0,_ZN6PessoaD0Ev
FNDA:8,_ZN6PessoaD2Ev
FNDA:1,_ZN6Pessoa7getNomeB5cxx11Ev
FNDA:17,_ZN6Pessoa6getCpfB5cxx11Ev
FNDA:1,_ZN6Pessoa11getEnderecoB5cxx11Ev
FNDA:1,_ZN6Pessoa10getContatoB5cxx11Ev
FNF:8
FNH:7
DA:3,8
DA:5,3
DA:7,6
DA:8,6
DA:9,6
DA:10,5
DA:14,3
DA:15,3
DA:17,3
DA:19,1
DA:23,6
DA:25,5
DA:27,5
DA:29,1
DA:31,4
DA:33,1
DA:34,1
DA:35,1
DA:38,1
DA:39,1
DA:41,0
DA:43,2
DA:45,8
DA:48,1
DA:50,1
DA:53,17
DA:55,17
DA:58,1
DA:60,1
DA:63,1
DA:65,1
LF:31
LH:30
end_of_record
TN:
SF:/home/pimenta/docs/code/git/2019-1-grupo6/src/cadastro/Senha.cpp
FN:4,_ZN5Senha8setSenhaEv
FN:11,_ZN5Senha14setContraSenhaEv
FN:18,_ZN5Senha12comparaSenhaEv
FN:30,_ZN5Senha13cadastraSenhaEv
FNDA:0,_ZN5Senha8setSenhaEv
FNDA:0,_ZN5Senha14setContraSenhaEv
FNDA:0,_ZN5Senha12comparaSenhaEv
FNDA:0,_ZN5Senha13cadastraSenhaEv
FNF:4
FNH:0
DA:4,0
DA:6,0
DA:7,0
DA:8,0
DA:9,0
DA:11,0
DA:13,0
DA:14,0
DA:15,0
DA:16,0
DA:18,0
DA:20,0
DA:22,0
DA:26,0
DA:30,0
DA:32,0
DA:33,0
DA:35,0
DA:36,0
DA:38,0
DA:40,0
DA:41,0
DA:43,0
DA:44,0
DA:45,0
DA:47,0
DA:50,0
DA:51,0
DA:52,0
DA:53,0
DA:57,0
DA:58,0
DA:61,0
LF:33
LH:0
end_of_record
TN:
TN:
SF:/home/pimenta/docs/code/git/2019-1-grupo6/src/login/Login.cpp
FN:7,_ZN5Login12autenticacaoEv
FN:44,_ZN5Login6getCpfB5cxx11Ev
FNDA:0,_ZN5Login12autenticacaoEv
FNDA:0,_ZN5Login6getCpfB5cxx11Ev
FNF:2
FNH:0
DA:7,0
DA:9,0
DA:10,0
DA:11,0
DA:13,0
DA:16,0
DA:17,0
DA:19,0
DA:21,0
DA:22,0
DA:24,0
DA:25,0
DA:27,0
DA:28,0
DA:30,0
DA:34,0
DA:35,0
DA:39,0
DA:40,0
DA:44,0
DA:46,0
LF:21
LH:0
end_of_record
TN:
TN:
TN:
TN:
SF:/home/pimenta/docs/code/git/2019-1-grupo6/src/excecoes/ExcecaoBusca.cpp
FN:3,_ZNK24ExcecaoLivrosNaoListados4whatEv
FN:8,_ZNK30ExcecaoAberturaDeArquivoLivros4whatEv
FN:13,_ZNK32ExcecaoFechamentoDeArquivoLivros4whatEv
FN:18,_ZNK29ExcecaoLeituraDeArquivoLivros4whatEv
FNDA:1,_ZNK24ExcecaoLivrosNaoListados4whatEv
FNDA:0,_ZNK30ExcecaoAberturaDeArquivoLivros4whatEv
FNDA:0,_ZNK32ExcecaoFechamentoDeArquivoLivros4whatEv
FNDA:0,_ZNK29ExcecaoLeituraDeArquivoLivros4whatEv
FNF:4
FNH:1
DA:3,1
DA:5,1
DA:8,0
DA:10,0
DA:13,0
DA:15,0
DA:18,0
DA:20,0
LF:8
LH:2
end_of_record
TN:
SF:/home/pimenta/docs/code/git/2019-1-grupo6/src/excecoes/ExcecaoManipulacaoLivros.cpp
FN:3,_ZNK17ExcecaoMesmoLivro4whatEv
FN:8,_ZNK24ExcecaoProblemaDevolucao4whatEv
FNDA:1,_ZNK17ExcecaoMesmoLivro4whatEv
FNDA:1,_ZNK24ExcecaoProblemaDevolucao4whatEv
FNF:2
FNH:2
DA:3,1
DA:5,1
DA:8,1
DA:10,1
LF:4
LH:4
end_of_record
